target datalayout = "e-m:e-p270:32:32-p271:32:32-p272:64:64-i64:64-i128:128-f80:128-n8:16:32:64-S128"
target triple = "x86_64-pc-linux-gnu"

%struct.jpeg_decompress_struct = type { ptr, ptr, ptr, ptr, i32, i32, ptr, i32, i32, i32, i32, i32, i32, i32, double, i32, i32, i32, i32, i32, i32, i32, i32, i32, i32, i32, i32, i32, i32, i32, i32, i32, i32, ptr, i32, i32, i32, i32, i32, ptr, [4 x ptr], [4 x ptr], [4 x ptr], i32, ptr, i32, i32, [16 x i8], [16 x i8], [16 x i8], i32, i32, i8, i8, i8, i16, i16, i32, i8, i32, ptr, i32, i32, i32, i32, ptr, i32, [4 x ptr], i32, i32, i32, [10 x i32], i32, i32, i32, i32, i32, ptr, ptr, ptr, ptr, ptr, ptr, ptr, ptr, ptr, ptr, ptr }
%struct.jpeg_error_mgr = type { ptr, ptr, ptr, ptr, ptr, i32, %union.anon, i32, i64, ptr, i32, ptr, i32, i32 }
%union.anon = type { [8 x i32], [48 x i8] }
%struct.bmp_dest_struct = type { %struct.djpeg_dest_struct, i32, ptr, i32, i32, i32, i32, i32, ptr }
%struct.djpeg_dest_struct = type { ptr, ptr, ptr, ptr, ptr, ptr, ptr, ptr, i32 }

; Function Attrs: nounwind uwtable
define internal void @write_bmp_header(ptr noundef %0, ptr noundef %1) #0 {
  %3 = alloca ptr, align 8
  %4 = alloca ptr, align 8
  %5 = alloca [14 x i8], align 1
  %6 = alloca [40 x i8], align 16
  %7 = alloca i64, align 8
  %8 = alloca i64, align 8
  %9 = alloca i32, align 4
  %10 = alloca i32, align 4
  store ptr %0, ptr %3, align 8, !tbaa !4
  store ptr %1, ptr %4, align 8, !tbaa !43
  call void @llvm.lifetime.start.p0(i64 14, ptr %5) #7
  call void @llvm.lifetime.start.p0(i64 40, ptr %6) #7
  call void @llvm.lifetime.start.p0(i64 8, ptr %7) #7
  call void @llvm.lifetime.start.p0(i64 8, ptr %8) #7
  call void @llvm.lifetime.start.p0(i64 4, ptr %9) #7
  call void @llvm.lifetime.start.p0(i64 4, ptr %10) #7
  %11 = load ptr, ptr %3, align 8, !tbaa !4
  %12 = getelementptr inbounds nuw %struct.jpeg_decompress_struct, ptr %11, i32 0, i32 11
  %13 = load i32, ptr %12, align 8, !tbaa !53
  %14 = icmp eq i32 %13, 2
  br i1 %14, label %25, label %15

15:                                               ; preds = %2
  %16 = load ptr, ptr %3, align 8, !tbaa !4
  %17 = getelementptr inbounds nuw %struct.jpeg_decompress_struct, ptr %16, i32 0, i32 11
  %18 = load i32, ptr %17, align 8, !tbaa !53
  %19 = icmp uge i32 %18, 6
  br i1 %19, label %20, label %33

20:                                               ; preds = %15
  %21 = load ptr, ptr %3, align 8, !tbaa !4
  %22 = getelementptr inbounds nuw %struct.jpeg_decompress_struct, ptr %21, i32 0, i32 11
  %23 = load i32, ptr %22, align 8, !tbaa !53
  %24 = icmp ule i32 %23, 15
  br i1 %24, label %25, label %33

25:                                               ; preds = %20, %2
  %26 = load ptr, ptr %3, align 8, !tbaa !4
  %27 = getelementptr inbounds nuw %struct.jpeg_decompress_struct, ptr %26, i32 0, i32 20
  %28 = load i32, ptr %27, align 4, !tbaa !55
  %29 = icmp ne i32 %28, 0
  br i1 %29, label %30, label %31

30:                                               ; preds = %25
  store i32 8, ptr %9, align 4, !tbaa !9
  store i32 256, ptr %10, align 4, !tbaa !9
  br label %32

31:                                               ; preds = %25
  store i32 24, ptr %9, align 4, !tbaa !9
  store i32 0, ptr %10, align 4, !tbaa !9
  br label %32

32:                                               ; preds = %31, %30
  br label %46

33:                                               ; preds = %20, %15
  %34 = load ptr, ptr %3, align 8, !tbaa !4
  %35 = getelementptr inbounds nuw %struct.jpeg_decompress_struct, ptr %34, i32 0, i32 11
  %36 = load i32, ptr %35, align 8, !tbaa !53
  %37 = icmp eq i32 %36, 16
  br i1 %37, label %43, label %38

38:                                               ; preds = %33
  %39 = load ptr, ptr %3, align 8, !tbaa !4
  %40 = getelementptr inbounds nuw %struct.jpeg_decompress_struct, ptr %39, i32 0, i32 11
  %41 = load i32, ptr %40, align 8, !tbaa !53
  %42 = icmp eq i32 %41, 4
  br i1 %42, label %43, label %44

43:                                               ; preds = %38, %33
  store i32 24, ptr %9, align 4, !tbaa !9
  store i32 0, ptr %10, align 4, !tbaa !9
  br label %45

44:                                               ; preds = %38
  store i32 8, ptr %9, align 4, !tbaa !9
  store i32 256, ptr %10, align 4, !tbaa !9
  br label %45

45:                                               ; preds = %44, %43
  br label %46

46:                                               ; preds = %45, %32
  %47 = load i32, ptr %10, align 4, !tbaa !9
  %48 = mul nsw i32 %47, 4
  %49 = add nsw i32 54, %48
  %50 = sext i32 %49 to i64
  store i64 %50, ptr %7, align 8, !tbaa !99
  %51 = load i64, ptr %7, align 8, !tbaa !99
  %52 = load ptr, ptr %4, align 8, !tbaa !43
  %53 = getelementptr inbounds nuw %struct.bmp_dest_struct, ptr %52, i32 0, i32 4
  %54 = load i32, ptr %53, align 4, !tbaa !58
  %55 = zext i32 %54 to i64
  %56 = load ptr, ptr %3, align 8, !tbaa !4
  %57 = getelementptr inbounds nuw %struct.jpeg_decompress_struct, ptr %56, i32 0, i32 28
  %58 = load i32, ptr %57, align 4, !tbaa !65
  %59 = zext i32 %58 to i64
  %60 = mul nsw i64 %55, %59
  %61 = add nsw i64 %51, %60
  store i64 %61, ptr %8, align 8, !tbaa !99
  %62 = getelementptr inbounds [14 x i8], ptr %5, i64 0, i64 0
  call void @llvm.memset.p0.i64(ptr align 1 %62, i8 0, i64 14, i1 false)
  %63 = getelementptr inbounds [40 x i8], ptr %6, i64 0, i64 0
  call void @llvm.memset.p0.i64(ptr align 16 %63, i8 0, i64 40, i1 false)
  %64 = getelementptr inbounds [14 x i8], ptr %5, i64 0, i64 0
  store i8 66, ptr %64, align 1, !tbaa !38
  %65 = getelementptr inbounds [14 x i8], ptr %5, i64 0, i64 1
  store i8 77, ptr %65, align 1, !tbaa !38
  %66 = load i64, ptr %8, align 8, !tbaa !99
  %67 = and i64 %66, 255
  %68 = trunc i64 %67 to i8
  %69 = getelementptr inbounds [14 x i8], ptr %5, i64 0, i64 2
  store i8 %68, ptr %69, align 1, !tbaa !38
  %70 = load i64, ptr %8, align 8, !tbaa !99
  %71 = ashr i64 %70, 8
  %72 = and i64 %71, 255
  %73 = trunc i64 %72 to i8
  %74 = getelementptr inbounds [14 x i8], ptr %5, i64 0, i64 3
  store i8 %73, ptr %74, align 1, !tbaa !38
  %75 = load i64, ptr %8, align 8, !tbaa !99
  %76 = ashr i64 %75, 16
  %77 = and i64 %76, 255
  %78 = trunc i64 %77 to i8
  %79 = getelementptr inbounds [14 x i8], ptr %5, i64 0, i64 4
  store i8 %78, ptr %79, align 1, !tbaa !38
  %80 = load i64, ptr %8, align 8, !tbaa !99
  %81 = ashr i64 %80, 24
  %82 = and i64 %81, 255
  %83 = trunc i64 %82 to i8
  %84 = getelementptr inbounds [14 x i8], ptr %5, i64 0, i64 5
  store i8 %83, ptr %84, align 1, !tbaa !38
  %85 = load i64, ptr %7, align 8, !tbaa !99
  %86 = and i64 %85, 255
  %87 = trunc i64 %86 to i8
  %88 = getelementptr inbounds [14 x i8], ptr %5, i64 0, i64 10
  store i8 %87, ptr %88, align 1, !tbaa !38
  %89 = load i64, ptr %7, align 8, !tbaa !99
  %90 = ashr i64 %89, 8
  %91 = and i64 %90, 255
  %92 = trunc i64 %91 to i8
  %93 = getelementptr inbounds [14 x i8], ptr %5, i64 0, i64 11
  store i8 %92, ptr %93, align 1, !tbaa !38
  %94 = load i64, ptr %7, align 8, !tbaa !99
  %95 = ashr i64 %94, 16
  %96 = and i64 %95, 255
  %97 = trunc i64 %96 to i8
  %98 = getelementptr inbounds [14 x i8], ptr %5, i64 0, i64 12
  store i8 %97, ptr %98, align 1, !tbaa !38
  %99 = load i64, ptr %7, align 8, !tbaa !99
  %100 = ashr i64 %99, 24
  %101 = and i64 %100, 255
  %102 = trunc i64 %101 to i8
  %103 = getelementptr inbounds [14 x i8], ptr %5, i64 0, i64 13
  store i8 %102, ptr %103, align 1, !tbaa !38
  %104 = getelementptr inbounds [40 x i8], ptr %6, i64 0, i64 0
  store i8 40, ptr %104, align 16, !tbaa !38
  %105 = getelementptr inbounds [40 x i8], ptr %6, i64 0, i64 1
  store i8 0, ptr %105, align 1, !tbaa !38
  %106 = load ptr, ptr %3, align 8, !tbaa !4
  %107 = getelementptr inbounds nuw %struct.jpeg_decompress_struct, ptr %106, i32 0, i32 27
  %108 = load i32, ptr %107, align 8, !tbaa !56
  %109 = and i32 %108, 255
  %110 = trunc i32 %109 to i8
  %111 = getelementptr inbounds [40 x i8], ptr %6, i64 0, i64 4
  store i8 %110, ptr %111, align 4, !tbaa !38
  %112 = load ptr, ptr %3, align 8, !tbaa !4
  %113 = getelementptr inbounds nuw %struct.jpeg_decompress_struct, ptr %112, i32 0, i32 27
  %114 = load i32, ptr %113, align 8, !tbaa !56
  %115 = lshr i32 %114, 8
  %116 = and i32 %115, 255
  %117 = trunc i32 %116 to i8
  %118 = getelementptr inbounds [40 x i8], ptr %6, i64 0, i64 5
  store i8 %117, ptr %118, align 1, !tbaa !38
  %119 = load ptr, ptr %3, align 8, !tbaa !4
  %120 = getelementptr inbounds nuw %struct.jpeg_decompress_struct, ptr %119, i32 0, i32 27
  %121 = load i32, ptr %120, align 8, !tbaa !56
  %122 = lshr i32 %121, 16
  %123 = and i32 %122, 255
  %124 = trunc i32 %123 to i8
  %125 = getelementptr inbounds [40 x i8], ptr %6, i64 0, i64 6
  store i8 %124, ptr %125, align 2, !tbaa !38
  %126 = load ptr, ptr %3, align 8, !tbaa !4
  %127 = getelementptr inbounds nuw %struct.jpeg_decompress_struct, ptr %126, i32 0, i32 27
  %128 = load i32, ptr %127, align 8, !tbaa !56
  %129 = lshr i32 %128, 24
  %130 = and i32 %129, 255
  %131 = trunc i32 %130 to i8
  %132 = getelementptr inbounds [40 x i8], ptr %6, i64 0, i64 7
  store i8 %131, ptr %132, align 1, !tbaa !38
  %133 = load ptr, ptr %3, align 8, !tbaa !4
  %134 = getelementptr inbounds nuw %struct.jpeg_decompress_struct, ptr %133, i32 0, i32 28
  %135 = load i32, ptr %134, align 4, !tbaa !65
  %136 = and i32 %135, 255
  %137 = trunc i32 %136 to i8
  %138 = getelementptr inbounds [40 x i8], ptr %6, i64 0, i64 8
  store i8 %137, ptr %138, align 8, !tbaa !38
  %139 = load ptr, ptr %3, align 8, !tbaa !4
  %140 = getelementptr inbounds nuw %struct.jpeg_decompress_struct, ptr %139, i32 0, i32 28
  %141 = load i32, ptr %140, align 4, !tbaa !65
  %142 = lshr i32 %141, 8
  %143 = and i32 %142, 255
  %144 = trunc i32 %143 to i8
  %145 = getelementptr inbounds [40 x i8], ptr %6, i64 0, i64 9
  store i8 %144, ptr %145, align 1, !tbaa !38
  %146 = load ptr, ptr %3, align 8, !tbaa !4
  %147 = getelementptr inbounds nuw %struct.jpeg_decompress_struct, ptr %146, i32 0, i32 28
  %148 = load i32, ptr %147, align 4, !tbaa !65
  %149 = lshr i32 %148, 16
  %150 = and i32 %149, 255
  %151 = trunc i32 %150 to i8
  %152 = getelementptr inbounds [40 x i8], ptr %6, i64 0, i64 10
  store i8 %151, ptr %152, align 2, !tbaa !38
  %153 = load ptr, ptr %3, align 8, !tbaa !4
  %154 = getelementptr inbounds nuw %struct.jpeg_decompress_struct, ptr %153, i32 0, i32 28
  %155 = load i32, ptr %154, align 4, !tbaa !65
  %156 = lshr i32 %155, 24
  %157 = and i32 %156, 255
  %158 = trunc i32 %157 to i8
  %159 = getelementptr inbounds [40 x i8], ptr %6, i64 0, i64 11
  store i8 %158, ptr %159, align 1, !tbaa !38
  %160 = getelementptr inbounds [40 x i8], ptr %6, i64 0, i64 12
  store i8 1, ptr %160, align 4, !tbaa !38
  %161 = getelementptr inbounds [40 x i8], ptr %6, i64 0, i64 13
  store i8 0, ptr %161, align 1, !tbaa !38
  %162 = load i32, ptr %9, align 4, !tbaa !9
  %163 = and i32 %162, 255
  %164 = trunc i32 %163 to i8
  %165 = getelementptr inbounds [40 x i8], ptr %6, i64 0, i64 14
  store i8 %164, ptr %165, align 2, !tbaa !38
  %166 = load i32, ptr %9, align 4, !tbaa !9
  %167 = ashr i32 %166, 8
  %168 = and i32 %167, 255
  %169 = trunc i32 %168 to i8
  %170 = getelementptr inbounds [40 x i8], ptr %6, i64 0, i64 15
  store i8 %169, ptr %170, align 1, !tbaa !38
  %171 = load ptr, ptr %3, align 8, !tbaa !4
  %172 = getelementptr inbounds nuw %struct.jpeg_decompress_struct, ptr %171, i32 0, i32 54
  %173 = load i8, ptr %172, align 2, !tbaa !100
  %174 = zext i8 %173 to i32
  %175 = icmp eq i32 %174, 2
  br i1 %175, label %176, label %255

176:                                              ; preds = %46
  %177 = load ptr, ptr %3, align 8, !tbaa !4
  %178 = getelementptr inbounds nuw %struct.jpeg_decompress_struct, ptr %177, i32 0, i32 55
  %179 = load i16, ptr %178, align 4, !tbaa !101
  %180 = zext i16 %179 to i32
  %181 = mul nsw i32 %180, 100
  %182 = sext i32 %181 to i64
  %183 = and i64 %182, 255
  %184 = trunc i64 %183 to i8
  %185 = getelementptr inbounds [40 x i8], ptr %6, i64 0, i64 24
  store i8 %184, ptr %185, align 8, !tbaa !38
  %186 = load ptr, ptr %3, align 8, !tbaa !4
  %187 = getelementptr inbounds nuw %struct.jpeg_decompress_struct, ptr %186, i32 0, i32 55
  %188 = load i16, ptr %187, align 4, !tbaa !101
  %189 = zext i16 %188 to i32
  %190 = mul nsw i32 %189, 100
  %191 = sext i32 %190 to i64
  %192 = ashr i64 %191, 8
  %193 = and i64 %192, 255
  %194 = trunc i64 %193 to i8
  %195 = getelementptr inbounds [40 x i8], ptr %6, i64 0, i64 25
  store i8 %194, ptr %195, align 1, !tbaa !38
  %196 = load ptr, ptr %3, align 8, !tbaa !4
  %197 = getelementptr inbounds nuw %struct.jpeg_decompress_struct, ptr %196, i32 0, i32 55
  %198 = load i16, ptr %197, align 4, !tbaa !101
  %199 = zext i16 %198 to i32
  %200 = mul nsw i32 %199, 100
  %201 = sext i32 %200 to i64
  %202 = ashr i64 %201, 16
  %203 = and i64 %202, 255
  %204 = trunc i64 %203 to i8
  %205 = getelementptr inbounds [40 x i8], ptr %6, i64 0, i64 26
  store i8 %204, ptr %205, align 2, !tbaa !38
  %206 = load ptr, ptr %3, align 8, !tbaa !4
  %207 = getelementptr inbounds nuw %struct.jpeg_decompress_struct, ptr %206, i32 0, i32 55
  %208 = load i16, ptr %207, align 4, !tbaa !101
  %209 = zext i16 %208 to i32
  %210 = mul nsw i32 %209, 100
  %211 = sext i32 %210 to i64
  %212 = ashr i64 %211, 24
  %213 = and i64 %212, 255
  %214 = trunc i64 %213 to i8
  %215 = getelementptr inbounds [40 x i8], ptr %6, i64 0, i64 27
  store i8 %214, ptr %215, align 1, !tbaa !38
  %216 = load ptr, ptr %3, align 8, !tbaa !4
  %217 = getelementptr inbounds nuw %struct.jpeg_decompress_struct, ptr %216, i32 0, i32 56
  %218 = load i16, ptr %217, align 2, !tbaa !102
  %219 = zext i16 %218 to i32
  %220 = mul nsw i32 %219, 100
  %221 = sext i32 %220 to i64
  %222 = and i64 %221, 255
  %223 = trunc i64 %222 to i8
  %224 = getelementptr inbounds [40 x i8], ptr %6, i64 0, i64 28
  store i8 %223, ptr %224, align 4, !tbaa !38
  %225 = load ptr, ptr %3, align 8, !tbaa !4
  %226 = getelementptr inbounds nuw %struct.jpeg_decompress_struct, ptr %225, i32 0, i32 56
  %227 = load i16, ptr %226, align 2, !tbaa !102
  %228 = zext i16 %227 to i32
  %229 = mul nsw i32 %228, 100
  %230 = sext i32 %229 to i64
  %231 = ashr i64 %230, 8
  %232 = and i64 %231, 255
  %233 = trunc i64 %232 to i8
  %234 = getelementptr inbounds [40 x i8], ptr %6, i64 0, i64 29
  store i8 %233, ptr %234, align 1, !tbaa !38
  %235 = load ptr, ptr %3, align 8, !tbaa !4
  %236 = getelementptr inbounds nuw %struct.jpeg_decompress_struct, ptr %235, i32 0, i32 56
  %237 = load i16, ptr %236, align 2, !tbaa !102
  %238 = zext i16 %237 to i32
  %239 = mul nsw i32 %238, 100
  %240 = sext i32 %239 to i64
  %241 = ashr i64 %240, 16
  %242 = and i64 %241, 255
  %243 = trunc i64 %242 to i8
  %244 = getelementptr inbounds [40 x i8], ptr %6, i64 0, i64 30
  store i8 %243, ptr %244, align 2, !tbaa !38
  %245 = load ptr, ptr %3, align 8, !tbaa !4
  %246 = getelementptr inbounds nuw %struct.jpeg_decompress_struct, ptr %245, i32 0, i32 56
  %247 = load i16, ptr %246, align 2, !tbaa !102
  %248 = zext i16 %247 to i32
  %249 = mul nsw i32 %248, 100
  %250 = sext i32 %249 to i64
  %251 = ashr i64 %250, 24
  %252 = and i64 %251, 255
  %253 = trunc i64 %252 to i8
  %254 = getelementptr inbounds [40 x i8], ptr %6, i64 0, i64 31
  store i8 %253, ptr %254, align 1, !tbaa !38
  br label %255

255:                                              ; preds = %176, %46
  %256 = load i32, ptr %10, align 4, !tbaa !9
  %257 = and i32 %256, 255
  %258 = trunc i32 %257 to i8
  %259 = getelementptr inbounds [40 x i8], ptr %6, i64 0, i64 32
  store i8 %258, ptr %259, align 16, !tbaa !38
  %260 = load i32, ptr %10, align 4, !tbaa !9
  %261 = ashr i32 %260, 8
  %262 = and i32 %261, 255
  %263 = trunc i32 %262 to i8
  %264 = getelementptr inbounds [40 x i8], ptr %6, i64 0, i64 33
  store i8 %263, ptr %264, align 1, !tbaa !38
  %265 = getelementptr inbounds [14 x i8], ptr %5, i64 0, i64 0
  %266 = load ptr, ptr %4, align 8, !tbaa !43
  %267 = getelementptr inbounds nuw %struct.bmp_dest_struct, ptr %266, i32 0, i32 0
  %268 = getelementptr inbounds nuw %struct.djpeg_dest_struct, ptr %267, i32 0, i32 4
  %269 = load ptr, ptr %268, align 8, !tbaa !81
  %270 = call i64 @fwrite(ptr noundef %265, i64 noundef 1, i64 noundef 14, ptr noundef %269)
  %271 = icmp ne i64 %270, 14
  br i1 %271, label %272, label %283

272:                                              ; preds = %255
  %273 = load ptr, ptr %3, align 8, !tbaa !4
  %274 = getelementptr inbounds nuw %struct.jpeg_decompress_struct, ptr %273, i32 0, i32 0
  %275 = load ptr, ptr %274, align 8, !tbaa !34
  %276 = getelementptr inbounds nuw %struct.jpeg_error_mgr, ptr %275, i32 0, i32 5
  store i32 37, ptr %276, align 8, !tbaa !35
  %277 = load ptr, ptr %3, align 8, !tbaa !4
  %278 = getelementptr inbounds nuw %struct.jpeg_decompress_struct, ptr %277, i32 0, i32 0
  %279 = load ptr, ptr %278, align 8, !tbaa !34
  %280 = getelementptr inbounds nuw %struct.jpeg_error_mgr, ptr %279, i32 0, i32 0
  %281 = load ptr, ptr %280, align 8, !tbaa !39
  %282 = load ptr, ptr %3, align 8, !tbaa !4
  call void %281(ptr noundef %282)
  br label %283

283:                                              ; preds = %272, %255
  %284 = getelementptr inbounds [40 x i8], ptr %6, i64 0, i64 0
  %285 = load ptr, ptr %4, align 8, !tbaa !43
  %286 = getelementptr inbounds nuw %struct.bmp_dest_struct, ptr %285, i32 0, i32 0
  %287 = getelementptr inbounds nuw %struct.djpeg_dest_struct, ptr %286, i32 0, i32 4
  %288 = load ptr, ptr %287, align 8, !tbaa !81
  %289 = call i64 @fwrite(ptr noundef %284, i64 noundef 1, i64 noundef 40, ptr noundef %288)
  %290 = icmp ne i64 %289, 40
  br i1 %290, label %291, label %302

291:                                              ; preds = %283
  %292 = load ptr, ptr %3, align 8, !tbaa !4
  %293 = getelementptr inbounds nuw %struct.jpeg_decompress_struct, ptr %292, i32 0, i32 0
  %294 = load ptr, ptr %293, align 8, !tbaa !34
  %295 = getelementptr inbounds nuw %struct.jpeg_error_mgr, ptr %294, i32 0, i32 5
  store i32 37, ptr %295, align 8, !tbaa !35
  %296 = load ptr, ptr %3, align 8, !tbaa !4
  %297 = getelementptr inbounds nuw %struct.jpeg_decompress_struct, ptr %296, i32 0, i32 0
  %298 = load ptr, ptr %297, align 8, !tbaa !34
  %299 = getelementptr inbounds nuw %struct.jpeg_error_mgr, ptr %298, i32 0, i32 0
  %300 = load ptr, ptr %299, align 8, !tbaa !39
  %301 = load ptr, ptr %3, align 8, !tbaa !4
  call void %300(ptr noundef %301)
  br label %302

302:                                              ; preds = %291, %283
  %303 = load i32, ptr %10, align 4, !tbaa !9
  %304 = icmp sgt i32 %303, 0
  br i1 %304, label %305, label %309

305:                                              ; preds = %302
  %306 = load ptr, ptr %3, align 8, !tbaa !4
  %307 = load ptr, ptr %4, align 8, !tbaa !43
  %308 = load i32, ptr %10, align 4, !tbaa !9
  call void @write_colormap(ptr noundef %306, ptr noundef %307, i32 noundef %308, i32 noundef 4)
  br label %309

309:                                              ; preds = %305, %302
  call void @llvm.lifetime.end.p0(i64 4, ptr %10) #7
  call void @llvm.lifetime.end.p0(i64 4, ptr %9) #7
  call void @llvm.lifetime.end.p0(i64 8, ptr %8) #7
  call void @llvm.lifetime.end.p0(i64 8, ptr %7) #7
  call void @llvm.lifetime.end.p0(i64 40, ptr %6) #7
  call void @llvm.lifetime.end.p0(i64 14, ptr %5) #7
  ret void
}