; Function Attrs: nounwind uwtable
define internal fastcc void @write_bmp_header(ptr noundef %0, ptr noundef readonly captures(none) %1) unnamed_addr #0 {
  %3 = alloca [14 x i8], align 1
  %4 = alloca [40 x i8], align 16
  call void @llvm.lifetime.start.p0(i64 14, ptr nonnull %3) #7
  call void @llvm.lifetime.start.p0(i64 40, ptr nonnull %4) #7
  %5 = getelementptr inbounds nuw i8, ptr %0, i64 64
  %6 = load i32, ptr %5, align 8, !tbaa !49
  %7 = icmp eq i32 %6, 2
  %8 = add i32 %6, -6
  %or.cond = icmp ult i32 %8, 10
  %or.cond57 = or i1 %7, %or.cond
  br i1 %or.cond57, label %9, label %12

9:                                                ; preds = %2
  %10 = getelementptr inbounds nuw i8, ptr %0, i64 108
  %11 = load i32, ptr %10, align 4, !tbaa !51
  %.not = icmp ne i32 %11, 0
  %. = select i1 %.not, i8 8, i8 24
  %.56 = select i1 %.not, i32 256, i32 0
  br label %14

12:                                               ; preds = %2
  switch i32 %6, label %13 [
    i32 16, label %14
    i32 4, label %14
  ]

13:                                               ; preds = %12
  br label %14

14:                                               ; preds = %12, %12, %9, %13
  %.050 = phi i8 [ 8, %13 ], [ %., %9 ], [ 24, %12 ], [ 24, %12 ]
  %15 = phi i1 [ true, %13 ], [ %.not, %9 ], [ false, %12 ], [ false, %12 ]
  %.0 = phi i32 [ 256, %13 ], [ %.56, %9 ], [ 0, %12 ], [ 0, %12 ]
  %16 = shl nuw nsw i32 %.0, 2
  %17 = or disjoint i32 %16, 54
  %18 = zext nneg i32 %17 to i64
  %19 = getelementptr inbounds nuw i8, ptr %1, i64 92
  %20 = load i32, ptr %19, align 4, !tbaa !54
  %21 = zext i32 %20 to i64
  %22 = getelementptr inbounds nuw i8, ptr %0, i64 140
  %23 = load i32, ptr %22, align 4, !tbaa !58
  %24 = zext i32 %23 to i64
  %25 = mul nuw nsw i64 %24, %21
  %26 = add nuw nsw i64 %25, %18
  %27 = getelementptr inbounds nuw i8, ptr %3, i64 6
  store i32 0, ptr %27, align 1
  call void @llvm.memset.p0.i64(ptr noundef nonnull align 16 dereferenceable(40) %4, i8 0, i64 40, i1 false)
  store i8 66, ptr %3, align 1, !tbaa !35
  %28 = getelementptr inbounds nuw i8, ptr %3, i64 1
  store i8 77, ptr %28, align 1, !tbaa !35
  %29 = trunc i64 %26 to i8
  %30 = getelementptr inbounds nuw i8, ptr %3, i64 2
  store i8 %29, ptr %30, align 1, !tbaa !35
  %31 = lshr i64 %26, 8
  %32 = trunc i64 %31 to i8
  %33 = getelementptr inbounds nuw i8, ptr %3, i64 3
  store i8 %32, ptr %33, align 1, !tbaa !35
  %34 = lshr i64 %26, 16
  %35 = trunc i64 %34 to i8
  %36 = getelementptr inbounds nuw i8, ptr %3, i64 4
  store i8 %35, ptr %36, align 1, !tbaa !35
  %37 = lshr i64 %26, 24
  %38 = trunc i64 %37 to i8
  %39 = getelementptr inbounds nuw i8, ptr %3, i64 5
  store i8 %38, ptr %39, align 1, !tbaa !35
  %40 = getelementptr inbounds nuw i8, ptr %3, i64 10
  store i8 54, ptr %40, align 1, !tbaa !35
  %41 = lshr i64 %18, 8
  %42 = trunc nuw nsw i64 %41 to i8
  %43 = getelementptr inbounds nuw i8, ptr %3, i64 11
  store i8 %42, ptr %43, align 1, !tbaa !35
  %44 = getelementptr inbounds nuw i8, ptr %3, i64 12
  store i8 0, ptr %44, align 1, !tbaa !35
  %45 = getelementptr inbounds nuw i8, ptr %3, i64 13
  store i8 0, ptr %45, align 1, !tbaa !35
  store i8 40, ptr %4, align 16, !tbaa !35
  %46 = getelementptr inbounds nuw i8, ptr %0, i64 136
  %47 = load i32, ptr %46, align 8, !tbaa !52
  %48 = trunc i32 %47 to i8
  %49 = getelementptr inbounds nuw i8, ptr %4, i64 4
  store i8 %48, ptr %49, align 4, !tbaa !35
  %50 = lshr i32 %47, 8
  %51 = trunc i32 %50 to i8
  %52 = getelementptr inbounds nuw i8, ptr %4, i64 5
  store i8 %51, ptr %52, align 1, !tbaa !35
  %53 = lshr i32 %47, 16
  %54 = trunc i32 %53 to i8
  %55 = getelementptr inbounds nuw i8, ptr %4, i64 6
  store i8 %54, ptr %55, align 2, !tbaa !35
  %56 = lshr i32 %47, 24
  %57 = trunc nuw i32 %56 to i8
  %58 = getelementptr inbounds nuw i8, ptr %4, i64 7
  store i8 %57, ptr %58, align 1, !tbaa !35
  %59 = trunc i32 %23 to i8
  %60 = getelementptr inbounds nuw i8, ptr %4, i64 8
  store i8 %59, ptr %60, align 8, !tbaa !35
  %61 = lshr i32 %23, 8
  %62 = trunc i32 %61 to i8
  %63 = getelementptr inbounds nuw i8, ptr %4, i64 9
  store i8 %62, ptr %63, align 1, !tbaa !35
  %64 = lshr i32 %23, 16
  %65 = trunc i32 %64 to i8
  %66 = getelementptr inbounds nuw i8, ptr %4, i64 10
  store i8 %65, ptr %66, align 2, !tbaa !35
  %67 = lshr i32 %23, 24
  %68 = trunc nuw i32 %67 to i8
  %69 = getelementptr inbounds nuw i8, ptr %4, i64 11
  store i8 %68, ptr %69, align 1, !tbaa !35
  %70 = getelementptr inbounds nuw i8, ptr %4, i64 12
  store i8 1, ptr %70, align 4, !tbaa !35
  %71 = getelementptr inbounds nuw i8, ptr %4, i64 14
  store i8 %.050, ptr %71, align 2, !tbaa !35
  %72 = getelementptr inbounds nuw i8, ptr %0, i64 378
  %73 = load i8, ptr %72, align 2, !tbaa !84
  %74 = icmp eq i8 %73, 2
  br i1 %74, label %75, label %104

75:                                               ; preds = %14
  %76 = getelementptr inbounds nuw i8, ptr %0, i64 380
  %77 = load i16, ptr %76, align 4, !tbaa !85
  %78 = trunc i16 %77 to i8
  %79 = mul i8 %78, 100
  %80 = getelementptr inbounds nuw i8, ptr %4, i64 24
  store i8 %79, ptr %80, align 8, !tbaa !35
  %81 = zext i16 %77 to i64
  %82 = mul nuw nsw i64 %81, 100
  %83 = lshr i64 %82, 8
  %84 = trunc i64 %83 to i8
  %85 = getelementptr inbounds nuw i8, ptr %4, i64 25
  store i8 %84, ptr %85, align 1, !tbaa !35
  %86 = lshr i64 %82, 16
  %87 = trunc nuw nsw i64 %86 to i8
  %88 = getelementptr inbounds nuw i8, ptr %4, i64 26
  store i8 %87, ptr %88, align 2, !tbaa !35
  %89 = getelementptr inbounds nuw i8, ptr %4, i64 27
  store i8 0, ptr %89, align 1, !tbaa !35
  %90 = getelementptr inbounds nuw i8, ptr %0, i64 382
  %91 = load i16, ptr %90, align 2, !tbaa !86
  %92 = trunc i16 %91 to i8
  %93 = mul i8 %92, 100
  %94 = getelementptr inbounds nuw i8, ptr %4, i64 28
  store i8 %93, ptr %94, align 4, !tbaa !35
  %95 = zext i16 %91 to i64
  %96 = mul nuw nsw i64 %95, 100
  %97 = lshr i64 %96, 8
  %98 = trunc i64 %97 to i8
  %99 = getelementptr inbounds nuw i8, ptr %4, i64 29
  store i8 %98, ptr %99, align 1, !tbaa !35
  %100 = lshr i64 %96, 16
  %101 = trunc nuw nsw i64 %100 to i8
  %102 = getelementptr inbounds nuw i8, ptr %4, i64 30
  store i8 %101, ptr %102, align 2, !tbaa !35
  %103 = getelementptr inbounds nuw i8, ptr %4, i64 31
  store i8 0, ptr %103, align 1, !tbaa !35
  br label %104

104:                                              ; preds = %75, %14
  %105 = getelementptr inbounds nuw i8, ptr %4, i64 32
  store i8 0, ptr %105, align 16, !tbaa !35
  %106 = lshr exact i32 %.0, 8
  %107 = trunc nuw nsw i32 %106 to i8
  %108 = getelementptr inbounds nuw i8, ptr %4, i64 33
  store i8 %107, ptr %108, align 1, !tbaa !35
  %109 = getelementptr inbounds nuw i8, ptr %1, i64 32
  %110 = load ptr, ptr %109, align 8, !tbaa !70
  %111 = call i64 @fwrite(ptr noundef nonnull %3, i64 noundef 1, i64 noundef 14, ptr noundef %110)
  %.not53 = icmp eq i64 %111, 14
  br i1 %.not53, label %116, label %112

112:                                              ; preds = %104
  %113 = load ptr, ptr %0, align 8, !tbaa !31
  %114 = getelementptr inbounds nuw i8, ptr %113, i64 40
  store i32 37, ptr %114, align 8, !tbaa !32
  %115 = load ptr, ptr %113, align 8, !tbaa !36
  tail call void %115(ptr noundef nonnull %0) #7
  br label %116

116:                                              ; preds = %112, %104
  %117 = load ptr, ptr %109, align 8, !tbaa !70
  %118 = call i64 @fwrite(ptr noundef nonnull %4, i64 noundef 1, i64 noundef 40, ptr noundef %117)
  %.not54 = icmp eq i64 %118, 40
  br i1 %.not54, label %123, label %119

119:                                              ; preds = %116
  %120 = load ptr, ptr %0, align 8, !tbaa !31
  %121 = getelementptr inbounds nuw i8, ptr %120, i64 40
  store i32 37, ptr %121, align 8, !tbaa !32
  %122 = load ptr, ptr %120, align 8, !tbaa !36
  tail call void %122(ptr noundef nonnull %0) #7
  br label %123

123:                                              ; preds = %119, %116
  br i1 %15, label %124, label %125

124:                                              ; preds = %123
  %.val = load ptr, ptr %109, align 8, !tbaa !70
  tail call fastcc void @write_colormap(ptr noundef nonnull %0, ptr %.val, i32 noundef %.0, i32 noundef 4)
  br label %125

125:                                              ; preds = %124, %123
  call void @llvm.lifetime.end.p0(i64 40, ptr nonnull %4) #7
  call void @llvm.lifetime.end.p0(i64 14, ptr nonnull %3) #7
  ret void
}